; Function Attrs: nounwind uwtable
define internal ptr @gen_iternext(ptr noundef %0) #2 {
  %2 = alloca ptr, align 8
  call void @llvm.lifetime.start.p0(i64 8, ptr nonnull %2) #8
  %3 = call fastcc i32 @gen_send_ex2(ptr noundef %0, ptr noundef null, ptr noundef nonnull %2, i32 noundef 0, i32 noundef 0)
  %4 = icmp eq i32 %3, 0
  %.pre = load ptr, ptr %2, align 8, !tbaa !32
  br i1 %4, label %5, label %Py_DECREF.exit

5:                                                ; preds = %1
  %.not = icmp eq ptr %.pre, @_Py_NoneStruct
  br i1 %.not, label %_PyGen_SetStopIterationValue.exit.thread, label %6

6:                                                ; preds = %5
  %7 = icmp eq ptr %.pre, null
  %8 = load ptr, ptr @PyExc_StopIteration, align 8, !tbaa !32
  br i1 %7, label %9, label %11

9:                                                ; preds = %6
  %10 = tail call ptr @PyObject_CallNoArgs(ptr noundef %8) #8
  br label %13

11:                                               ; preds = %6
  %12 = tail call ptr @PyObject_CallOneArg(ptr noundef %8, ptr noundef nonnull %.pre) #8
  br label %13

13:                                               ; preds = %11, %9
  %14 = phi ptr [ %10, %9 ], [ %12, %11 ]
  %15 = icmp eq ptr %14, null
  br i1 %15, label %_PyGen_SetStopIterationValue.exit, label %16

16:                                               ; preds = %13
  tail call void @PyErr_SetRaisedException(ptr noundef nonnull %14) #8
  br label %_PyGen_SetStopIterationValue.exit

_PyGen_SetStopIterationValue.exit:                ; preds = %16, %13
  br i1 %7, label %Py_DECREF.exit, label %_PyGen_SetStopIterationValue.exit.thread

_PyGen_SetStopIterationValue.exit.thread:         ; preds = %5, %_PyGen_SetStopIterationValue.exit
  %17 = load i32, ptr %.pre, align 8, !tbaa !4
  %.not.i = icmp sgt i32 %17, -1
  br i1 %.not.i, label %18, label %Py_DECREF.exit

18:                                               ; preds = %_PyGen_SetStopIterationValue.exit.thread
  %19 = add nsw i32 %17, -1
  store i32 %19, ptr %.pre, align 8, !tbaa !4
  %20 = icmp eq i32 %19, 0
  br i1 %20, label %21, label %Py_DECREF.exit

21:                                               ; preds = %18
  tail call void @_Py_Dealloc(ptr noundef nonnull %.pre) #8
  br label %Py_DECREF.exit

Py_DECREF.exit:                                   ; preds = %21, %18, %_PyGen_SetStopIterationValue.exit.thread, %_PyGen_SetStopIterationValue.exit, %1
  %22 = phi ptr [ null, %21 ], [ null, %18 ], [ null, %_PyGen_SetStopIterationValue.exit.thread ], [ null, %_PyGen_SetStopIterationValue.exit ], [ %.pre, %1 ]
  call void @llvm.lifetime.end.p0(i64 8, ptr nonnull %2) #8
  ret ptr %22
}